target datalayout = "e-m:e-p270:32:32-p271:32:32-p272:64:64-i64:64-i128:128-f80:128-n8:16:32:64-S128"
target triple = "x86_64-pc-linux-gnu"

%"class.std::_Function_base" = type { %"union.std::_Any_data", ptr }
%"union.std::_Any_data" = type { %"union.std::_Nocopy_types" }
%"union.std::_Nocopy_types" = type { { i64, i64 } }
%"class.std::function.524" = type { %"class.std::_Function_base", ptr }
%"class.cv::Range" = type { i32, i32 }
%struct.Body = type { %"class.cv::ParallelLoopBody", %"class.std::function.524" }
%"class.cv::ParallelLoopBody" = type { ptr }
%"struct.ade::util::Range::IotaRange" = type { i32, i32 }
%"struct.ade::util::Range::IotaRange<int, 1>::iterator" = type { i32 }

; Function Attrs: mustprogress nounwind uwtable
define linkonce_odr hidden noundef zeroext i1 @_ZNKSt14_Function_base8_M_emptyEv(ptr noundef nonnull align 8 dereferenceable(24) %0) #7 comdat align 2 {
  %2 = alloca ptr, align 8
  store ptr %0, ptr %2, align 8, !tbaa !705
  %3 = load ptr, ptr %2, align 8
  %4 = getelementptr inbounds nuw %"class.std::_Function_base", ptr %3, i32 0, i32 1
  %5 = load ptr, ptr %4, align 8, !tbaa !687
  %6 = icmp ne ptr %5, null
  %7 = xor i1 %6, true
  ret i1 %7
}

; Function Attrs: inlinehint mustprogress nounwind uwtable
define linkonce_odr hidden void @_ZNK3ade4util5Range9IotaRangeIiLi1EE5checkEv(ptr noundef nonnull align 4 dereferenceable(8) %0) #8 comdat align 2 {
  %2 = alloca ptr, align 8
  store ptr %0, ptr %2, align 8, !tbaa !2146
  ret void
}

; Function Attrs: inlinehint mustprogress nounwind uwtable
define linkonce_odr hidden noundef nonnull align 4 dereferenceable(4) ptr @_ZN3ade4util5Range9IotaRangeIiLi1EE8iteratorppEv(ptr noundef nonnull align 4 dereferenceable(4) %0) #8 comdat align 2 {
  %2 = alloca ptr, align 8
  store ptr %0, ptr %2, align 8, !tbaa !2153
  %3 = load ptr, ptr %2, align 8
  %4 = getelementptr inbounds nuw %"struct.ade::util::Range::IotaRange<int, 1>::iterator", ptr %3, i32 0, i32 0
  %5 = load i32, ptr %4, align 4, !tbaa !2151
  %6 = add nsw i32 %5, 1
  store i32 %6, ptr %4, align 4, !tbaa !2151
  ret ptr %3
}

; Function Attrs: mustprogress uwtable
define linkonce_odr hidden void @_ZNKSt8functionIFvmEEclEm(ptr noundef nonnull align 8 dereferenceable(32) %0, i64 noundef %1) #4 comdat align 2 {
  %3 = alloca ptr, align 8
  %4 = alloca i64, align 8
  store ptr %0, ptr %3, align 8, !tbaa !701
  store i64 %1, ptr %4, align 8, !tbaa !145
  %5 = load ptr, ptr %3, align 8
  %6 = call noundef zeroext i1 @_ZNKSt14_Function_base8_M_emptyEv(ptr noundef nonnull align 8 dereferenceable(24) %5)
  br i1 %6, label %7, label %8

7:                                                ; preds = %2
  call void @_ZSt25__throw_bad_function_callv() #25
  unreachable

8:                                                ; preds = %2
  %9 = getelementptr inbounds nuw %"class.std::function.524", ptr %5, i32 0, i32 1
  %10 = load ptr, ptr %9, align 8, !tbaa !703
  %11 = getelementptr inbounds nuw %"class.std::_Function_base", ptr %5, i32 0, i32 0
  call void %10(ptr noundef nonnull align 8 dereferenceable(16) %11, ptr noundef nonnull align 8 dereferenceable(8) %4)
  ret void
}

; Function Attrs: inlinehint mustprogress nounwind uwtable
define linkonce_odr hidden noundef nonnull align 4 dereferenceable(4) ptr @_ZNK3ade4util5Range9IotaRangeIiLi1EE8iteratordeEv(ptr noundef nonnull align 4 dereferenceable(4) %0) #8 comdat align 2 {
  %2 = alloca ptr, align 8
  store ptr %0, ptr %2, align 8, !tbaa !2153
  %3 = load ptr, ptr %2, align 8
  %4 = getelementptr inbounds nuw %"struct.ade::util::Range::IotaRange<int, 1>::iterator", ptr %3, i32 0, i32 0
  ret ptr %4
}

; Function Attrs: inlinehint mustprogress nounwind uwtable
define linkonce_odr hidden noundef zeroext i1 @_ZNK3ade4util5Range9IotaRangeIiLi1EE8iteratorneERKS4_(ptr noundef nonnull align 4 dereferenceable(4) %0, ptr noundef nonnull align 4 dereferenceable(4) %1) #8 comdat align 2 {
  %3 = alloca ptr, align 8
  %4 = alloca ptr, align 8
  store ptr %0, ptr %3, align 8, !tbaa !2153
  store ptr %1, ptr %4, align 8, !tbaa !2153
  %5 = load ptr, ptr %3, align 8
  %6 = getelementptr inbounds nuw %"struct.ade::util::Range::IotaRange<int, 1>::iterator", ptr %5, i32 0, i32 0
  %7 = load i32, ptr %6, align 4, !tbaa !2151
  %8 = load ptr, ptr %4, align 8, !tbaa !2153
  %9 = getelementptr inbounds nuw %"struct.ade::util::Range::IotaRange<int, 1>::iterator", ptr %8, i32 0, i32 0
  %10 = load i32, ptr %9, align 4, !tbaa !2151
  %11 = icmp ne i32 %7, %10
  ret i1 %11
}

; Function Attrs: inlinehint mustprogress nounwind uwtable
define linkonce_odr hidden i32 @_ZNK3ade4util5Range9IotaRangeIiLi1EE3endEv(ptr noundef nonnull align 4 dereferenceable(8) %0) #8 comdat align 2 {
  %2 = alloca %"struct.ade::util::Range::IotaRange<int, 1>::iterator", align 4
  %3 = alloca ptr, align 8
  store ptr %0, ptr %3, align 8, !tbaa !2146
  %4 = load ptr, ptr %3, align 8
  call void @_ZNK3ade4util5Range9IotaRangeIiLi1EE5checkEv(ptr noundef nonnull align 4 dereferenceable(8) %4)
  %5 = getelementptr inbounds nuw %"struct.ade::util::Range::IotaRange<int, 1>::iterator", ptr %2, i32 0, i32 0
  %6 = getelementptr inbounds nuw %"struct.ade::util::Range::IotaRange", ptr %4, i32 0, i32 1
  %7 = load i32, ptr %6, align 4, !tbaa !2150
  store i32 %7, ptr %5, align 4, !tbaa !2151
  %8 = getelementptr inbounds nuw %"struct.ade::util::Range::IotaRange<int, 1>::iterator", ptr %2, i32 0, i32 0
  %9 = load i32, ptr %8, align 4
  ret i32 %9
}

; Function Attrs: inlinehint mustprogress uwtable
define linkonce_odr hidden i32 @_ZNK3ade4util5Range9IotaRangeIiLi1EE5beginEv(ptr noundef nonnull align 4 dereferenceable(8) %0) #6 comdat align 2 {
  %2 = alloca %"struct.ade::util::Range::IotaRange<int, 1>::iterator", align 4
  %3 = alloca ptr, align 8
  store ptr %0, ptr %3, align 8, !tbaa !2146
  %4 = load ptr, ptr %3, align 8
  call void @_ZNK3ade4util5Range9IotaRangeIiLi1EE5checkEv(ptr noundef nonnull align 4 dereferenceable(8) %4)
  %5 = getelementptr inbounds nuw %"struct.ade::util::Range::IotaRange<int, 1>::iterator", ptr %2, i32 0, i32 0
  %6 = getelementptr inbounds nuw %"struct.ade::util::Range::IotaRange", ptr %4, i32 0, i32 0
  %7 = load i32, ptr %6, align 4, !tbaa !2148
  store i32 %7, ptr %5, align 4, !tbaa !2151
  %8 = getelementptr inbounds nuw %"struct.ade::util::Range::IotaRange<int, 1>::iterator", ptr %2, i32 0, i32 0
  %9 = load i32, ptr %8, align 4
  ret i32 %9
}

; Function Attrs: inlinehint mustprogress nounwind uwtable
define linkonce_odr hidden i64 @_ZN3ade4util5Range4iotaIiEENS1_9IotaRangeIT_Li1EEES4_S4_(i32 noundef %0, i32 noundef %1) #8 comdat {
  %3 = alloca %"struct.ade::util::Range::IotaRange", align 4
  %4 = alloca i32, align 4
  %5 = alloca i32, align 4
  store i32 %0, ptr %4, align 4, !tbaa !146
  store i32 %1, ptr %5, align 4, !tbaa !146
  %6 = getelementptr inbounds nuw %"struct.ade::util::Range::IotaRange", ptr %3, i32 0, i32 0
  %7 = load i32, ptr %4, align 4, !tbaa !146
  store i32 %7, ptr %6, align 4, !tbaa !2148
  %8 = getelementptr inbounds nuw %"struct.ade::util::Range::IotaRange", ptr %3, i32 0, i32 1
  %9 = load i32, ptr %5, align 4, !tbaa !146
  store i32 %9, ptr %8, align 4, !tbaa !2150
  %10 = load i64, ptr %3, align 4
  ret i64 %10
}

; Function Attrs: mustprogress uwtable
define internal void @_ZZZNK12_GLOBAL__N_117GFluidBackendImpl7compileERKN3ade5GraphERKSt6vectorIN2cv11GCompileArgESaIS7_EERKS5_INS1_6HandleINS1_4NodeEEESaISE_EEENKUlmSt8functionIFvmEEE_clEmSL_ENK4BodyclERKNS6_5RangeE(ptr noundef nonnull align 8 dereferenceable(40) %0, ptr noundef nonnull align 4 dereferenceable(8) %1) unnamed_addr #4 align 2 {
  %3 = alloca ptr, align 8
  %4 = alloca ptr, align 8
  %5 = alloca ptr, align 8
  %6 = alloca %"struct.ade::util::Range::IotaRange", align 4
  %7 = alloca %"struct.ade::util::Range::IotaRange<int, 1>::iterator", align 4
  %8 = alloca %"struct.ade::util::Range::IotaRange<int, 1>::iterator", align 4
  %9 = alloca i64, align 8
  store ptr %0, ptr %3, align 8, !tbaa !2142
  store ptr %1, ptr %4, align 8, !tbaa !2137
  %10 = load ptr, ptr %3, align 8
  call void @llvm.lifetime.start.p0(i64 8, ptr %5) #3
  call void @llvm.lifetime.start.p0(i64 8, ptr %6) #3
  %11 = load ptr, ptr %4, align 8, !tbaa !2137
  %12 = getelementptr inbounds nuw %"class.cv::Range", ptr %11, i32 0, i32 0
  %13 = load i32, ptr %12, align 4, !tbaa !2139
  %14 = load ptr, ptr %4, align 8, !tbaa !2137
  %15 = getelementptr inbounds nuw %"class.cv::Range", ptr %14, i32 0, i32 1
  %16 = load i32, ptr %15, align 4, !tbaa !2141
  %17 = call i64 @_ZN3ade4util5Range4iotaIiEENS1_9IotaRangeIT_Li1EEES4_S4_(i32 noundef %13, i32 noundef %16)
  store i64 %17, ptr %6, align 4
  store ptr %6, ptr %5, align 8, !tbaa !2146
  call void @llvm.lifetime.start.p0(i64 4, ptr %7) #3
  %18 = load ptr, ptr %5, align 8, !tbaa !2146
  %19 = call i32 @_ZNK3ade4util5Range9IotaRangeIiLi1EE5beginEv(ptr noundef nonnull align 4 dereferenceable(8) %18)
  %20 = getelementptr inbounds nuw %"struct.ade::util::Range::IotaRange<int, 1>::iterator", ptr %7, i32 0, i32 0
  store i32 %19, ptr %20, align 4
  call void @llvm.lifetime.start.p0(i64 4, ptr %8) #3
  %21 = load ptr, ptr %5, align 8, !tbaa !2146
  %22 = call i32 @_ZNK3ade4util5Range9IotaRangeIiLi1EE3endEv(ptr noundef nonnull align 4 dereferenceable(8) %21)
  %23 = getelementptr inbounds nuw %"struct.ade::util::Range::IotaRange<int, 1>::iterator", ptr %8, i32 0, i32 0
  store i32 %22, ptr %23, align 4
  br label %24

24:                                               ; preds = %33, %2
  %25 = call noundef zeroext i1 @_ZNK3ade4util5Range9IotaRangeIiLi1EE8iteratorneERKS4_(ptr noundef nonnull align 4 dereferenceable(4) %7, ptr noundef nonnull align 4 dereferenceable(4) %8)
  br i1 %25, label %27, label %26

26:                                               ; preds = %24
  call void @llvm.lifetime.end.p0(i64 4, ptr %8) #3
  call void @llvm.lifetime.end.p0(i64 4, ptr %7) #3
  call void @llvm.lifetime.end.p0(i64 8, ptr %6) #3
  call void @llvm.lifetime.end.p0(i64 8, ptr %5) #3
  br label %35

27:                                               ; preds = %24
  call void @llvm.lifetime.start.p0(i64 8, ptr %9) #3
  %28 = call noundef nonnull align 4 dereferenceable(4) ptr @_ZNK3ade4util5Range9IotaRangeIiLi1EE8iteratordeEv(ptr noundef nonnull align 4 dereferenceable(4) %7)
  %29 = load i32, ptr %28, align 4, !tbaa !146
  %30 = sext i32 %29 to i64
  store i64 %30, ptr %9, align 8, !tbaa !145
  %31 = getelementptr inbounds nuw %struct.Body, ptr %10, i32 0, i32 1
  %32 = load i64, ptr %9, align 8, !tbaa !145
  call void @_ZNKSt8functionIFvmEEclEm(ptr noundef nonnull align 8 dereferenceable(32) %31, i64 noundef %32)
  call void @llvm.lifetime.end.p0(i64 8, ptr %9) #3
  br label %33

33:                                               ; preds = %27
  %34 = call noundef nonnull align 4 dereferenceable(4) ptr @_ZN3ade4util5Range9IotaRangeIiLi1EE8iteratorppEv(ptr noundef nonnull align 4 dereferenceable(4) %7)
  br label %24

35:                                               ; preds = %26
  ret void
}