; Function Attrs: mustprogress uwtable
define internal void @_ZZZNK12_GLOBAL__N_117GFluidBackendImpl7compileERKN3ade5GraphERKSt6vectorIN2cv11GCompileArgESaIS7_EERKS5_INS1_6HandleINS1_4NodeEEESaISE_EEENKUlmSt8functionIFvmEEE_clEmSL_ENK4BodyclERKNS6_5RangeE(ptr noundef nonnull align 8 dereferenceable(40) %0, ptr noundef nonnull readonly align 4 captures(none) dereferenceable(8) %1) unnamed_addr #3 align 2 {
  %3 = alloca i64, align 8
  %4 = load i32, ptr %1, align 4, !tbaa !1440
  %5 = getelementptr inbounds nuw i8, ptr %1, i64 4
  %6 = load i32, ptr %5, align 4, !tbaa !1442
  %.not9 = icmp eq i32 %4, %6
  br i1 %.not9, label %._crit_edge, label %.lr.ph

.lr.ph:                                           ; preds = %2
  %7 = getelementptr inbounds nuw i8, ptr %0, i64 24
  %8 = getelementptr inbounds nuw i8, ptr %0, i64 8
  %9 = getelementptr inbounds nuw i8, ptr %0, i64 32
  %10 = sext i32 %4 to i64
  br label %11

._crit_edge:                                      ; preds = %_ZNKSt8functionIFvmEEclEm.exit, %2
  ret void

11:                                               ; preds = %.lr.ph, %_ZNKSt8functionIFvmEEclEm.exit
  %indvars.iv = phi i64 [ %10, %.lr.ph ], [ %indvars.iv.next, %_ZNKSt8functionIFvmEEclEm.exit ]
  call void @llvm.lifetime.start.p0(i64 8, ptr nonnull %3)
  store i64 %indvars.iv, ptr %3, align 8, !tbaa !75
  %12 = load ptr, ptr %7, align 8, !tbaa !130
  %.not.i.i = icmp eq ptr %12, null
  br i1 %.not.i.i, label %13, label %_ZNKSt8functionIFvmEEclEm.exit

13:                                               ; preds = %11
  call void @_ZSt25__throw_bad_function_callv() #35
  unreachable

_ZNKSt8functionIFvmEEclEm.exit:                   ; preds = %11
  %14 = load ptr, ptr %9, align 8, !tbaa !1197
  call void %14(ptr noundef nonnull align 8 dereferenceable(32) %8, ptr noundef nonnull align 8 dereferenceable(8) %3)
  call void @llvm.lifetime.end.p0(i64 8, ptr nonnull %3)
  %indvars.iv.next = add nsw i64 %indvars.iv, 1
  %15 = trunc nsw i64 %indvars.iv.next to i32
  %.not = icmp eq i32 %6, %15
  br i1 %.not, label %._crit_edge, label %11
}